target datalayout = "e-m:e-p270:32:32-p271:32:32-p272:64:64-i64:64-i128:128-f80:128-n8:16:32:64-S128"
target triple = "x86_64-pc-linux-gnu"

%struct.WebPDecBuffer = type { i32, i32, i32, i32, %union.anon, [4 x i32], ptr }
%union.anon = type { %struct.WebPYUVABuffer }
%struct.WebPYUVABuffer = type { ptr, ptr, ptr, ptr, i32, i32, i32, i32, i64, i64, i64, i64 }
%struct.WebPBitstreamFeatures = type { i32, i32, i32, i32, i32, [5 x i32] }

; Function Attrs: inlinehint nounwind uwtable
define internal i32 @WebPIsPremultipliedMode(i32 noundef %0) #1 {
  %2 = alloca i32, align 4
  store i32 %0, ptr %2, align 4, !tbaa !3
  %3 = load i32, ptr %2, align 4, !tbaa !3
  %4 = icmp eq i32 %3, 7
  br i1 %4, label %14, label %5

5:                                                ; preds = %1
  %6 = load i32, ptr %2, align 4, !tbaa !3
  %7 = icmp eq i32 %6, 8
  br i1 %7, label %14, label %8

8:                                                ; preds = %5
  %9 = load i32, ptr %2, align 4, !tbaa !3
  %10 = icmp eq i32 %9, 9
  br i1 %10, label %14, label %11

11:                                               ; preds = %8
  %12 = load i32, ptr %2, align 4, !tbaa !3
  %13 = icmp eq i32 %12, 10
  br label %14

14:                                               ; preds = %11, %8, %5, %1
  %15 = phi i1 [ true, %8 ], [ true, %5 ], [ true, %1 ], [ %13, %11 ]
  %16 = zext i1 %15 to i32
  ret i32 %16
}

; Function Attrs: nounwind uwtable
define hidden i32 @WebPAvoidSlowMemory(ptr noundef %0, ptr noundef %1) #0 {
  %3 = alloca ptr, align 8
  %4 = alloca ptr, align 8
  store ptr %0, ptr %3, align 8, !tbaa !7
  store ptr %1, ptr %4, align 8, !tbaa !55
  %5 = load ptr, ptr %3, align 8, !tbaa !7
  %6 = getelementptr inbounds nuw %struct.WebPDecBuffer, ptr %5, i32 0, i32 3
  %7 = load i32, ptr %6, align 4, !tbaa !45
  %8 = icmp sge i32 %7, 2
  br i1 %8, label %9, label %25

9:                                                ; preds = %2
  %10 = load ptr, ptr %3, align 8, !tbaa !7
  %11 = getelementptr inbounds nuw %struct.WebPDecBuffer, ptr %10, i32 0, i32 0
  %12 = load i32, ptr %11, align 8, !tbaa !10
  %13 = call i32 @WebPIsPremultipliedMode(i32 noundef %12)
  %14 = icmp ne i32 %13, 0
  br i1 %14, label %15, label %25

15:                                               ; preds = %9
  %16 = load ptr, ptr %4, align 8, !tbaa !55
  %17 = icmp ne ptr %16, null
  br i1 %17, label %18, label %23

18:                                               ; preds = %15
  %19 = load ptr, ptr %4, align 8, !tbaa !55
  %20 = getelementptr inbounds nuw %struct.WebPBitstreamFeatures, ptr %19, i32 0, i32 2
  %21 = load i32, ptr %20, align 4, !tbaa !57
  %22 = icmp ne i32 %21, 0
  br label %23

23:                                               ; preds = %18, %15
  %24 = phi i1 [ false, %15 ], [ %22, %18 ]
  br label %25

25:                                               ; preds = %23, %9, %2
  %26 = phi i1 [ false, %9 ], [ false, %2 ], [ %24, %23 ]
  %27 = zext i1 %26 to i32
  ret i32 %27
}