; Function Attrs: mustprogress nofree norecurse nosync nounwind willreturn memory(argmem: read) uwtable
define hidden range(i32 0, 2) i32 @WebPAvoidSlowMemory(ptr noundef readonly captures(none) %0, ptr noundef readonly captures(address_is_null) %1) local_unnamed_addr #8 {
  %3 = getelementptr inbounds nuw i8, ptr %0, i64 12
  %4 = load i32, ptr %3, align 4, !tbaa !36
  %5 = icmp sgt i32 %4, 1
  br i1 %5, label %6, label %15

6:                                                ; preds = %2
  %7 = load i32, ptr %0, align 8, !tbaa !3
  %8 = add i32 %7, -7
  %narrow.i = icmp ult i32 %8, 4
  %9 = icmp ne ptr %1, null
  %or.cond = and i1 %9, %narrow.i
  br i1 %or.cond, label %10, label %15

10:                                               ; preds = %6
  %11 = getelementptr inbounds nuw i8, ptr %1, i64 8
  %12 = load i32, ptr %11, align 4, !tbaa !46
  %13 = icmp ne i32 %12, 0
  %14 = zext i1 %13 to i32
  br label %15

15:                                               ; preds = %10, %6, %2
  %16 = phi i32 [ 0, %6 ], [ 0, %2 ], [ %14, %10 ]
  ret i32 %16
}